; Function Attrs: nounwind uwtable
define void @Gia_ManSimDelete(ptr noundef %0) local_unnamed_addr #1 {
  %2 = getelementptr inbounds nuw i8, ptr %0, i64 32
  %3 = load ptr, ptr %2, align 8, !tbaa !58
  %4 = icmp eq ptr %3, null
  br i1 %4, label %Vec_IntFreeP.exit, label %5

5:                                                ; preds = %1
  %6 = getelementptr inbounds nuw i8, ptr %3, i64 8
  %7 = load ptr, ptr %6, align 8, !tbaa !36
  %.not.i = icmp eq ptr %7, null
  br i1 %.not.i, label %10, label %.thread.i

.thread.i:                                        ; preds = %5
  tail call void @free(ptr noundef nonnull %7) #26
  %8 = load ptr, ptr %2, align 8, !tbaa !58
  %9 = getelementptr inbounds nuw i8, ptr %8, i64 8
  store ptr null, ptr %9, align 8, !tbaa !36
  br label %10

10:                                               ; preds = %.thread.i, %5
  %11 = phi ptr [ %8, %.thread.i ], [ %3, %5 ]
  tail call void @free(ptr noundef nonnull %11) #26
  store ptr null, ptr %2, align 8, !tbaa !58
  br label %Vec_IntFreeP.exit

Vec_IntFreeP.exit:                                ; preds = %1, %10
  %12 = getelementptr inbounds nuw i8, ptr %0, i64 24
  %13 = load ptr, ptr %12, align 8, !tbaa !58
  %14 = icmp eq ptr %13, null
  br i1 %14, label %Vec_IntFreeP.exit22, label %15

15:                                               ; preds = %Vec_IntFreeP.exit
  %16 = getelementptr inbounds nuw i8, ptr %13, i64 8
  %17 = load ptr, ptr %16, align 8, !tbaa !36
  %.not.i20 = icmp eq ptr %17, null
  br i1 %.not.i20, label %20, label %.thread.i21

.thread.i21:                                      ; preds = %15
  tail call void @free(ptr noundef nonnull %17) #26
  %18 = load ptr, ptr %12, align 8, !tbaa !58
  %19 = getelementptr inbounds nuw i8, ptr %18, i64 8
  store ptr null, ptr %19, align 8, !tbaa !36
  br label %20

20:                                               ; preds = %.thread.i21, %15
  %21 = phi ptr [ %18, %.thread.i21 ], [ %13, %15 ]
  tail call void @free(ptr noundef nonnull %21) #26
  store ptr null, ptr %12, align 8, !tbaa !58
  br label %Vec_IntFreeP.exit22

Vec_IntFreeP.exit22:                              ; preds = %Vec_IntFreeP.exit, %20
  tail call void @Gia_ManStopP(ptr noundef nonnull %0) #26
  %22 = getelementptr inbounds nuw i8, ptr %0, i64 40
  %23 = load ptr, ptr %22, align 8, !tbaa !13
  %.not = icmp eq ptr %23, null
  br i1 %.not, label %25, label %24

24:                                               ; preds = %Vec_IntFreeP.exit22
  tail call void @free(ptr noundef nonnull %23) #26
  store ptr null, ptr %22, align 8, !tbaa !13
  br label %25

25:                                               ; preds = %Vec_IntFreeP.exit22, %24
  %26 = getelementptr inbounds nuw i8, ptr %0, i64 48
  %27 = load ptr, ptr %26, align 8, !tbaa !14
  %.not17 = icmp eq ptr %27, null
  br i1 %.not17, label %29, label %28

28:                                               ; preds = %25
  tail call void @free(ptr noundef nonnull %27) #26
  store ptr null, ptr %26, align 8, !tbaa !14
  br label %29

29:                                               ; preds = %25, %28
  %30 = getelementptr inbounds nuw i8, ptr %0, i64 56
  %31 = load ptr, ptr %30, align 8, !tbaa !15
  %.not18 = icmp eq ptr %31, null
  br i1 %.not18, label %33, label %32

32:                                               ; preds = %29
  tail call void @free(ptr noundef nonnull %31) #26
  br label %33

33:                                               ; preds = %29, %32
  tail call void @free(ptr noundef nonnull %0) #26
  ret void
}